; Function Attrs: nounwind uwtable
define dso_local void @trace2_data_intmax_fl(ptr noundef %0, i32 noundef %1, ptr noundef %2, ptr noundef %3, ptr noundef %4, i64 noundef %5) local_unnamed_addr #0 {
  %7 = alloca %struct.strbuf, align 8
  call void @llvm.lifetime.start.p0(i64 24, ptr nonnull %7) #11
  call void @llvm.memcpy.p0.p0.i64(ptr noundef nonnull align 8 dereferenceable(24) %7, ptr noundef nonnull align 8 dereferenceable(24) @__const.trace2_data_intmax_fl.buf_string, i64 24, i1 false)
  %.b = load i1, ptr @trace2_enabled, align 4
  br i1 %.b, label %8, label %26

8:                                                ; preds = %6
  call void (ptr, ptr, ...) @strbuf_addf(ptr noundef nonnull %7, ptr noundef nonnull @.str.4, i64 noundef %5) #11
  %9 = getelementptr inbounds nuw i8, ptr %7, i64 16
  %10 = load ptr, ptr %9, align 8, !tbaa !104
  %.b.i = load i1, ptr @trace2_enabled, align 4
  br i1 %.b.i, label %11, label %trace2_data_string_fl.exit

11:                                               ; preds = %8
  %12 = call i64 @getnanotime() #11
  %13 = udiv i64 %12, 1000
  %14 = call i64 @tr2tls_absolute_elapsed(i64 noundef %13) #11
  %15 = call i64 @tr2tls_region_elasped_self(i64 noundef %13) #11
  br label %16

16:                                               ; preds = %23, %11
  %indvars.iv.i = phi i64 [ 0, %11 ], [ %indvars.iv.next.i, %23 ]
  %.021.i = phi ptr [ @tr2_tgt_normal, %11 ], [ %25, %23 ]
  %17 = load ptr, ptr %.021.i, align 8, !tbaa !14
  %18 = call i32 @tr2_dst_trace_want(ptr noundef %17) #11
  %.not18.i = icmp eq i32 %18, 0
  br i1 %.not18.i, label %23, label %19

19:                                               ; preds = %16
  %20 = getelementptr inbounds nuw i8, ptr %.021.i, i64 200
  %21 = load ptr, ptr %20, align 8, !tbaa !102
  %.not19.i = icmp eq ptr %21, null
  br i1 %.not19.i, label %23, label %22

22:                                               ; preds = %19
  call void %21(ptr noundef %0, i32 noundef %1, i64 noundef %14, i64 noundef %15, ptr noundef %2, ptr noundef %3, ptr noundef %4, ptr noundef %10) #11
  br label %23

23:                                               ; preds = %22, %19, %16
  %indvars.iv.next.i = add nuw nsw i64 %indvars.iv.i, 1
  %24 = getelementptr inbounds nuw [4 x ptr], ptr @tr2_tgt_builtins, i64 0, i64 %indvars.iv.next.i
  %25 = load ptr, ptr %24, align 8, !tbaa !10
  %.not.i = icmp eq i64 %indvars.iv.next.i, 3
  br i1 %.not.i, label %trace2_data_string_fl.exit, label %16, !llvm.loop !103

trace2_data_string_fl.exit:                       ; preds = %23, %8
  call void @strbuf_release(ptr noundef nonnull %7) #11
  br label %26

26:                                               ; preds = %6, %trace2_data_string_fl.exit
  call void @llvm.lifetime.end.p0(i64 24, ptr nonnull %7) #11
  ret void
}